; Function Attrs: nofree nosync nounwind memory(readwrite, inaccessiblemem: none) uwtable
define i32 @Abc_BddCountNodesArray2(ptr noundef readonly captures(none) %0, ptr noundef readonly captures(none) %1) local_unnamed_addr #5 {
  %3 = getelementptr i8, ptr %1, i64 4
  %.val12 = load i32, ptr %3, align 4, !tbaa !32
  %4 = icmp sgt i32 %.val12, 0
  br i1 %4, label %.lr.ph, label %.critedge

.lr.ph:                                           ; preds = %2
  %5 = getelementptr i8, ptr %1, i64 8
  br label %6

6:                                                ; preds = %.lr.ph, %6
  %indvars.iv = phi i64 [ 0, %.lr.ph ], [ %indvars.iv.next, %6 ]
  %.014 = phi i32 [ 0, %.lr.ph ], [ %10, %6 ]
  %.val11 = load ptr, ptr %5, align 8, !tbaa !34
  %7 = getelementptr inbounds nuw i32, ptr %.val11, i64 %indvars.iv
  %8 = load i32, ptr %7, align 4, !tbaa !23
  %9 = tail call i32 @Abc_BddCount_rec(ptr noundef %0, i32 noundef %8)
  %10 = add nsw i32 %9, %.014
  tail call void @Abc_BddUnmark_rec(ptr noundef %0, i32 noundef %8)
  %indvars.iv.next = add nuw nsw i64 %indvars.iv, 1
  %.val = load i32, ptr %3, align 4, !tbaa !32
  %11 = sext i32 %.val to i64
  %12 = icmp slt i64 %indvars.iv.next, %11
  br i1 %12, label %6, label %.critedge, !llvm.loop !37

.critedge:                                        ; preds = %6, %2
  %.0.lcssa = phi i32 [ 0, %2 ], [ %10, %6 ]
  ret i32 %.0.lcssa
}